; Function Attrs: mustprogress nounwind uwtable
define dso_local void @_ZN15StatementReturnD0Ev(ptr noundef nonnull align 8 dereferenceable(40) %0) unnamed_addr #6 align 2 {
  store ptr getelementptr inbounds ({ [12 x ptr] }, ptr @_ZTV15StatementReturn, i64 0, i32 0, i64 2), ptr %0, align 8
  %2 = getelementptr inbounds i8, ptr %0, i64 32
  %3 = load ptr, ptr %2, align 8
  %4 = icmp eq ptr %3, null
  br i1 %4, label %_ZN15StatementReturnD2Ev.exit, label %5

5:                                                ; preds = %1
  %6 = load ptr, ptr %3, align 8
  %7 = getelementptr inbounds i8, ptr %6, i64 8
  %8 = load ptr, ptr %7, align 8
  tail call void %8(ptr noundef nonnull align 8 dereferenceable(40) %3) #16
  br label %_ZN15StatementReturnD2Ev.exit

_ZN15StatementReturnD2Ev.exit:                    ; preds = %1, %5
  tail call void @_ZN9StatementD2Ev(ptr noundef nonnull align 8 dereferenceable(32) %0) #16
  tail call void @_ZdlPv(ptr noundef nonnull %0) #15
  ret void
}